; Function Attrs: mustprogress uwtable
define hidden void @_ZN4cvc58internal4prop13CadicalSolver10StatisticsC2ERNS0_18StatisticsRegistryERKNSt7__cxx1112basic_stringIcSt11char_traitsIcESaIcEEE(ptr nocapture noundef nonnull writeonly align 8 dereferenceable(32) %this, ptr noundef nonnull align 8 dereferenceable(72) %registry, ptr noundef nonnull align 8 dereferenceable(32) %prefix) unnamed_addr #3 align 2 personality ptr @__gxx_personality_v0 {
entry:
  %ref.tmp = alloca %"class.std::__cxx11::basic_string", align 8
  %ref.tmp3 = alloca %"class.std::__cxx11::basic_string", align 8
  %ref.tmp9 = alloca %"class.std::__cxx11::basic_string", align 8
  %ref.tmp15 = alloca %"class.std::__cxx11::basic_string", align 8
  call void @_ZNSt7__cxx1112basic_stringIcSt11char_traitsIcESaIcEEC1ERKS4_(ptr noundef nonnull align 8 dereferenceable(32) %ref.tmp, ptr noundef nonnull align 8 dereferenceable(32) %prefix)
  %call.i = invoke noundef nonnull align 8 dereferenceable(32) ptr @_ZNSt7__cxx1112basic_stringIcSt11char_traitsIcESaIcEE6appendEPKc(ptr noundef nonnull align 8 dereferenceable(32) %ref.tmp, ptr noundef nonnull @.str.19)
          to label %_ZStplIcSt11char_traitsIcESaIcEENSt7__cxx1112basic_stringIT_T0_T1_EERKS8_PKS5_.exit unwind label %lpad.i

common.resume:                                    ; preds = %lpad, %lpad4, %lpad10, %lpad16, %lpad.i15, %lpad.i12, %lpad.i9, %lpad.i
  %ref.tmp.sink = phi ptr [ %ref.tmp, %lpad ], [ %ref.tmp3, %lpad4 ], [ %ref.tmp9, %lpad10 ], [ %ref.tmp15, %lpad16 ], [ %ref.tmp15, %lpad.i15 ], [ %ref.tmp9, %lpad.i12 ], [ %ref.tmp3, %lpad.i9 ], [ %ref.tmp, %lpad.i ]
  %common.resume.op = phi { ptr, i32 } [ %4, %lpad ], [ %5, %lpad4 ], [ %6, %lpad10 ], [ %7, %lpad16 ], [ %3, %lpad.i15 ], [ %2, %lpad.i12 ], [ %1, %lpad.i9 ], [ %0, %lpad.i ]
  call void @_ZNSt7__cxx1112basic_stringIcSt11char_traitsIcESaIcEED1Ev(ptr noundef nonnull align 8 dereferenceable(32) %ref.tmp.sink) #28
  resume { ptr, i32 } %common.resume.op

lpad.i:                                           ; preds = %entry
  %0 = landingpad { ptr, i32 }
          cleanup
  br label %common.resume

_ZStplIcSt11char_traitsIcESaIcEENSt7__cxx1112basic_stringIT_T0_T1_EERKS8_PKS5_.exit: ; preds = %entry
  %call = invoke ptr @_ZN4cvc58internal18StatisticsRegistry11registerIntERKNSt7__cxx1112basic_stringIcSt11char_traitsIcESaIcEEEb(ptr noundef nonnull align 8 dereferenceable(72) %registry, ptr noundef nonnull align 8 dereferenceable(32) %ref.tmp, i1 noundef zeroext true)
          to label %invoke.cont unwind label %lpad

invoke.cont:                                      ; preds = %_ZStplIcSt11char_traitsIcESaIcEENSt7__cxx1112basic_stringIT_T0_T1_EERKS8_PKS5_.exit
  store ptr %call, ptr %this, align 8
  call void @_ZNSt7__cxx1112basic_stringIcSt11char_traitsIcESaIcEED1Ev(ptr noundef nonnull align 8 dereferenceable(32) %ref.tmp) #28
  call void @_ZNSt7__cxx1112basic_stringIcSt11char_traitsIcESaIcEEC1ERKS4_(ptr noundef nonnull align 8 dereferenceable(32) %ref.tmp3, ptr noundef nonnull align 8 dereferenceable(32) %prefix)
  %call.i8 = invoke noundef nonnull align 8 dereferenceable(32) ptr @_ZNSt7__cxx1112basic_stringIcSt11char_traitsIcESaIcEE6appendEPKc(ptr noundef nonnull align 8 dereferenceable(32) %ref.tmp3, ptr noundef nonnull @.str.20)
          to label %_ZStplIcSt11char_traitsIcESaIcEENSt7__cxx1112basic_stringIT_T0_T1_EERKS8_PKS5_.exit10 unwind label %lpad.i9

lpad.i9:                                          ; preds = %invoke.cont
  %1 = landingpad { ptr, i32 }
          cleanup
  br label %common.resume

_ZStplIcSt11char_traitsIcESaIcEENSt7__cxx1112basic_stringIT_T0_T1_EERKS8_PKS5_.exit10: ; preds = %invoke.cont
  %call6 = invoke ptr @_ZN4cvc58internal18StatisticsRegistry11registerIntERKNSt7__cxx1112basic_stringIcSt11char_traitsIcESaIcEEEb(ptr noundef nonnull align 8 dereferenceable(72) %registry, ptr noundef nonnull align 8 dereferenceable(32) %ref.tmp3, i1 noundef zeroext true)
          to label %invoke.cont5 unwind label %lpad4

invoke.cont5:                                     ; preds = %_ZStplIcSt11char_traitsIcESaIcEENSt7__cxx1112basic_stringIT_T0_T1_EERKS8_PKS5_.exit10
  %d_numVariables = getelementptr inbounds i8, ptr %this, i64 8
  store ptr %call6, ptr %d_numVariables, align 8
  call void @_ZNSt7__cxx1112basic_stringIcSt11char_traitsIcESaIcEED1Ev(ptr noundef nonnull align 8 dereferenceable(32) %ref.tmp3) #28
  call void @_ZNSt7__cxx1112basic_stringIcSt11char_traitsIcESaIcEEC1ERKS4_(ptr noundef nonnull align 8 dereferenceable(32) %ref.tmp9, ptr noundef nonnull align 8 dereferenceable(32) %prefix)
  %call.i11 = invoke noundef nonnull align 8 dereferenceable(32) ptr @_ZNSt7__cxx1112basic_stringIcSt11char_traitsIcESaIcEE6appendEPKc(ptr noundef nonnull align 8 dereferenceable(32) %ref.tmp9, ptr noundef nonnull @.str.21)
          to label %_ZStplIcSt11char_traitsIcESaIcEENSt7__cxx1112basic_stringIT_T0_T1_EERKS8_PKS5_.exit13 unwind label %lpad.i12

lpad.i12:                                         ; preds = %invoke.cont5
  %2 = landingpad { ptr, i32 }
          cleanup
  br label %common.resume

_ZStplIcSt11char_traitsIcESaIcEENSt7__cxx1112basic_stringIT_T0_T1_EERKS8_PKS5_.exit13: ; preds = %invoke.cont5
  %call12 = invoke ptr @_ZN4cvc58internal18StatisticsRegistry11registerIntERKNSt7__cxx1112basic_stringIcSt11char_traitsIcESaIcEEEb(ptr noundef nonnull align 8 dereferenceable(72) %registry, ptr noundef nonnull align 8 dereferenceable(32) %ref.tmp9, i1 noundef zeroext true)
          to label %invoke.cont11 unwind label %lpad10

invoke.cont11:                                    ; preds = %_ZStplIcSt11char_traitsIcESaIcEENSt7__cxx1112basic_stringIT_T0_T1_EERKS8_PKS5_.exit13
  %d_numClauses = getelementptr inbounds i8, ptr %this, i64 16
  store ptr %call12, ptr %d_numClauses, align 8
  call void @_ZNSt7__cxx1112basic_stringIcSt11char_traitsIcESaIcEED1Ev(ptr noundef nonnull align 8 dereferenceable(32) %ref.tmp9) #28
  call void @_ZNSt7__cxx1112basic_stringIcSt11char_traitsIcESaIcEEC1ERKS4_(ptr noundef nonnull align 8 dereferenceable(32) %ref.tmp15, ptr noundef nonnull align 8 dereferenceable(32) %prefix)
  %call.i14 = invoke noundef nonnull align 8 dereferenceable(32) ptr @_ZNSt7__cxx1112basic_stringIcSt11char_traitsIcESaIcEE6appendEPKc(ptr noundef nonnull align 8 dereferenceable(32) %ref.tmp15, ptr noundef nonnull @.str.22)
          to label %_ZStplIcSt11char_traitsIcESaIcEENSt7__cxx1112basic_stringIT_T0_T1_EERKS8_PKS5_.exit16 unwind label %lpad.i15

lpad.i15:                                         ; preds = %invoke.cont11
  %3 = landingpad { ptr, i32 }
          cleanup
  br label %common.resume

_ZStplIcSt11char_traitsIcESaIcEENSt7__cxx1112basic_stringIT_T0_T1_EERKS8_PKS5_.exit16: ; preds = %invoke.cont11
  %call18 = invoke ptr @_ZN4cvc58internal18StatisticsRegistry13registerTimerERKNSt7__cxx1112basic_stringIcSt11char_traitsIcESaIcEEEb(ptr noundef nonnull align 8 dereferenceable(72) %registry, ptr noundef nonnull align 8 dereferenceable(32) %ref.tmp15, i1 noundef zeroext true)
          to label %invoke.cont17 unwind label %lpad16

invoke.cont17:                                    ; preds = %_ZStplIcSt11char_traitsIcESaIcEENSt7__cxx1112basic_stringIT_T0_T1_EERKS8_PKS5_.exit16
  %d_solveTime = getelementptr inbounds i8, ptr %this, i64 24
  store ptr %call18, ptr %d_solveTime, align 8
  call void @_ZNSt7__cxx1112basic_stringIcSt11char_traitsIcESaIcEED1Ev(ptr noundef nonnull align 8 dereferenceable(32) %ref.tmp15) #28
  ret void

lpad:                                             ; preds = %_ZStplIcSt11char_traitsIcESaIcEENSt7__cxx1112basic_stringIT_T0_T1_EERKS8_PKS5_.exit
  %4 = landingpad { ptr, i32 }
          cleanup
  br label %common.resume

lpad4:                                            ; preds = %_ZStplIcSt11char_traitsIcESaIcEENSt7__cxx1112basic_stringIT_T0_T1_EERKS8_PKS5_.exit10
  %5 = landingpad { ptr, i32 }
          cleanup
  br label %common.resume

lpad10:                                           ; preds = %_ZStplIcSt11char_traitsIcESaIcEENSt7__cxx1112basic_stringIT_T0_T1_EERKS8_PKS5_.exit13
  %6 = landingpad { ptr, i32 }
          cleanup
  br label %common.resume

lpad16:                                           ; preds = %_ZStplIcSt11char_traitsIcESaIcEENSt7__cxx1112basic_stringIT_T0_T1_EERKS8_PKS5_.exit16
  %7 = landingpad { ptr, i32 }
          cleanup
  br label %common.resume
}